target datalayout = "e-m:e-p270:32:32-p271:32:32-p272:64:64-i64:64-i128:128-f80:128-n8:16:32:64-S128"
target triple = "x86_64-pc-linux-gnu"

%struct.ExprEvalStep = type { i64, ptr, ptr, %union.anon }
%union.anon = type { %struct.anon.23 }
%struct.anon.23 = type { ptr, ptr, i32, i32, ptr, ptr }
%struct.anon.28 = type { ptr, ptr, ptr, i32, ptr }

@.str.1 = private unnamed_addr constant [17 x i8] c"execExprInterp.c\00", align 1
@.str.16 = private unnamed_addr constant [51 x i8] c"value for domain %s violates check constraint \22%s\22\00", align 1
@__func__.ExecEvalConstraintCheck = private unnamed_addr constant [24 x i8] c"ExecEvalConstraintCheck\00", align 1

; Function Attrs: inlinehint nounwind uwtable
define internal zeroext i1 @DatumGetBool(i64 noundef %0) #2 {
  %2 = alloca i64, align 8
  store i64 %0, ptr %2, align 8
  %3 = load i64, ptr %2, align 8
  %4 = icmp ne i64 %3, 0
  ret i1 %4
}

; Function Attrs: nounwind uwtable
define dso_local void @ExecEvalConstraintCheck(ptr noundef %0, ptr noundef %1) #0 {
  %3 = alloca ptr, align 8
  %4 = alloca ptr, align 8
  %5 = alloca ptr, align 8
  store ptr %0, ptr %3, align 8
  store ptr %1, ptr %4, align 8
  %6 = load ptr, ptr %4, align 8
  %7 = getelementptr inbounds nuw %struct.ExprEvalStep, ptr %6, i32 0, i32 3
  %8 = getelementptr inbounds nuw %struct.anon.28, ptr %7, i32 0, i32 2
  %9 = load ptr, ptr %8, align 8
  %10 = load i8, ptr %9, align 1, !range !7, !noundef !8
  %11 = trunc i8 %10 to i1
  br i1 %11, label %51, label %12

12:                                               ; preds = %2
  %13 = load ptr, ptr %4, align 8
  %14 = getelementptr inbounds nuw %struct.ExprEvalStep, ptr %13, i32 0, i32 3
  %15 = getelementptr inbounds nuw %struct.anon.28, ptr %14, i32 0, i32 1
  %16 = load ptr, ptr %15, align 8
  %17 = load i64, ptr %16, align 8
  %18 = call zeroext i1 @DatumGetBool(i64 noundef %17)
  br i1 %18, label %51, label %19

19:                                               ; preds = %12
  br label %20

20:                                               ; preds = %19
  call void @llvm.lifetime.start.p0(i64 8, ptr %5) #11
  %21 = load ptr, ptr %4, align 8
  %22 = getelementptr inbounds nuw %struct.ExprEvalStep, ptr %21, i32 0, i32 3
  %23 = getelementptr inbounds nuw %struct.anon.28, ptr %22, i32 0, i32 4
  %24 = load ptr, ptr %23, align 8
  store ptr %24, ptr %5, align 8
  %25 = load ptr, ptr %5, align 8
  %26 = call zeroext i1 @errsave_start(ptr noundef %25, ptr noundef null)
  br i1 %26, label %27, label %49

27:                                               ; preds = %20
  %28 = call i32 @errcode(i32 noundef 67391682)
  %29 = load ptr, ptr %4, align 8
  %30 = getelementptr inbounds nuw %struct.ExprEvalStep, ptr %29, i32 0, i32 3
  %31 = getelementptr inbounds nuw %struct.anon.28, ptr %30, i32 0, i32 3
  %32 = load i32, ptr %31, align 8
  %33 = call ptr @format_type_be(i32 noundef %32)
  %34 = load ptr, ptr %4, align 8
  %35 = getelementptr inbounds nuw %struct.ExprEvalStep, ptr %34, i32 0, i32 3
  %36 = getelementptr inbounds nuw %struct.anon.28, ptr %35, i32 0, i32 0
  %37 = load ptr, ptr %36, align 8
  %38 = call i32 (ptr, ...) @errmsg(ptr noundef @.str.16, ptr noundef %33, ptr noundef %37)
  %39 = load ptr, ptr %4, align 8
  %40 = getelementptr inbounds nuw %struct.ExprEvalStep, ptr %39, i32 0, i32 3
  %41 = getelementptr inbounds nuw %struct.anon.28, ptr %40, i32 0, i32 3
  %42 = load i32, ptr %41, align 8
  %43 = load ptr, ptr %4, align 8
  %44 = getelementptr inbounds nuw %struct.ExprEvalStep, ptr %43, i32 0, i32 3
  %45 = getelementptr inbounds nuw %struct.anon.28, ptr %44, i32 0, i32 0
  %46 = load ptr, ptr %45, align 8
  %47 = call i32 @errdomainconstraint(i32 noundef %42, ptr noundef %46)
  %48 = load ptr, ptr %5, align 8
  call void @errsave_finish(ptr noundef %48, ptr noundef @.str.1, i32 noundef 4351, ptr noundef @__func__.ExecEvalConstraintCheck)
  br label %49

49:                                               ; preds = %27, %20
  call void @llvm.lifetime.end.p0(i64 8, ptr %5) #11
  br label %50

50:                                               ; preds = %49
  br label %51

51:                                               ; preds = %50, %12, %2
  ret void
}