; Function Attrs: nounwind uwtable
define dso_local void @ExecEvalConstraintCheck(ptr readnone captures(none) %0, ptr noundef readonly captures(none) %1) local_unnamed_addr #0 {
  %3 = getelementptr inbounds nuw i8, ptr %1, i64 24
  %4 = getelementptr inbounds nuw i8, ptr %1, i64 40
  %5 = load ptr, ptr %4, align 8
  %6 = load i8, ptr %5, align 1, !range !8, !noundef !9
  %7 = trunc nuw i8 %6 to i1
  br i1 %7, label %26, label %8

8:                                                ; preds = %2
  %9 = getelementptr inbounds nuw i8, ptr %1, i64 32
  %10 = load ptr, ptr %9, align 8
  %11 = load i64, ptr %10, align 8
  %.not = icmp eq i64 %11, 0
  br i1 %.not, label %12, label %26

12:                                               ; preds = %8
  %13 = getelementptr inbounds nuw i8, ptr %1, i64 56
  %14 = load ptr, ptr %13, align 8
  %15 = tail call zeroext i1 @errsave_start(ptr noundef %14, ptr noundef null) #18
  br i1 %15, label %16, label %26

16:                                               ; preds = %12
  %17 = tail call i32 @errcode(i32 noundef 67391682) #18
  %18 = getelementptr inbounds nuw i8, ptr %1, i64 48
  %19 = load i32, ptr %18, align 8
  %20 = tail call ptr @format_type_be(i32 noundef %19) #18
  %21 = load ptr, ptr %3, align 8
  %22 = tail call i32 (ptr, ...) @errmsg(ptr noundef nonnull @.str.16, ptr noundef %20, ptr noundef %21) #18
  %23 = load i32, ptr %18, align 8
  %24 = load ptr, ptr %3, align 8
  %25 = tail call i32 @errdomainconstraint(i32 noundef %23, ptr noundef %24) #18
  tail call void @errsave_finish(ptr noundef %14, ptr noundef nonnull @.str.1, i32 noundef 4351, ptr noundef nonnull @__func__.ExecEvalConstraintCheck) #18
  br label %26

26:                                               ; preds = %12, %16, %8, %2
  ret void
}